target datalayout = "e-m:e-p270:32:32-p271:32:32-p272:64:64-i64:64-i128:128-f80:128-n8:16:32:64-S128"
target triple = "x86_64-pc-linux-gnu"

%struct.BrotliDecoderStateStruct = type { i32, i32, %struct.BrotliBitReader, ptr, ptr, ptr, %union.anon, i64, i32, i32, i32, i32, i32, i32, [4 x i32], i32, i32, ptr, ptr, ptr, ptr, ptr, ptr, %struct.HuffmanTreeGroup, %struct.HuffmanTreeGroup, %struct.HuffmanTreeGroup, ptr, ptr, i32, i32, [3 x i64], i64, [3 x i64], [6 x i64], i64, i64, i64, ptr, ptr, i64, i64, i64, [65 x i32], i32, i32, i8, ptr, ptr, ptr, i64, i32, i32, i32, i32, i32, i32, i64, ptr, ptr, ptr, ptr, [8 x i32], %union.anon.0 }
%struct.BrotliBitReader = type { i64, i64, ptr, ptr, ptr }
%union.anon = type { i64 }
%struct.HuffmanTreeGroup = type { ptr, ptr, i16, i16, i16 }
%union.anon.0 = type { %struct.BrotliMetablockBodyArena }
%struct.BrotliMetablockBodyArena = type { [544 x i8], [544 x i64] }

; Function Attrs: noinline nounwind uwtable
define internal void @BrotliCalculateRingBufferSize(ptr noundef %0) #5 {
  %2 = alloca ptr, align 8
  %3 = alloca i32, align 4
  %4 = alloca i32, align 4
  %5 = alloca i32, align 4
  %6 = alloca i32, align 4
  %7 = alloca i32, align 4
  store ptr %0, ptr %2, align 8, !tbaa !3
  call void @llvm.lifetime.start.p0(i64 4, ptr %3) #11
  %8 = load ptr, ptr %2, align 8, !tbaa !3
  %9 = getelementptr inbounds nuw %struct.BrotliDecoderStateStruct, ptr %8, i32 0, i32 55
  %10 = load i32, ptr %9, align 4
  %11 = lshr i32 %10, 6
  %12 = and i32 %11, 63
  %13 = shl i32 1, %12
  store i32 %13, ptr %3, align 4, !tbaa !8
  call void @llvm.lifetime.start.p0(i64 4, ptr %4) #11
  %14 = load i32, ptr %3, align 4, !tbaa !8
  store i32 %14, ptr %4, align 4, !tbaa !8
  call void @llvm.lifetime.start.p0(i64 4, ptr %5) #11
  %15 = load ptr, ptr %2, align 8, !tbaa !3
  %16 = getelementptr inbounds nuw %struct.BrotliDecoderStateStruct, ptr %15, i32 0, i32 11
  %17 = load i32, ptr %16, align 4, !tbaa !79
  %18 = icmp ne i32 %17, 0
  br i1 %18, label %19, label %23

19:                                               ; preds = %1
  %20 = load ptr, ptr %2, align 8, !tbaa !3
  %21 = getelementptr inbounds nuw %struct.BrotliDecoderStateStruct, ptr %20, i32 0, i32 11
  %22 = load i32, ptr %21, align 4, !tbaa !79
  br label %24

23:                                               ; preds = %1
  br label %24

24:                                               ; preds = %23, %19
  %25 = phi i32 [ %22, %19 ], [ 1024, %23 ]
  store i32 %25, ptr %5, align 4, !tbaa !8
  call void @llvm.lifetime.start.p0(i64 4, ptr %6) #11
  %26 = load ptr, ptr %2, align 8, !tbaa !3
  %27 = getelementptr inbounds nuw %struct.BrotliDecoderStateStruct, ptr %26, i32 0, i32 11
  %28 = load i32, ptr %27, align 4, !tbaa !79
  %29 = load i32, ptr %3, align 4, !tbaa !8
  %30 = icmp eq i32 %28, %29
  br i1 %30, label %31, label %32

31:                                               ; preds = %24
  store i32 1, ptr %7, align 4
  br label %85

32:                                               ; preds = %24
  %33 = load ptr, ptr %2, align 8, !tbaa !3
  %34 = getelementptr inbounds nuw %struct.BrotliDecoderStateStruct, ptr %33, i32 0, i32 55
  %35 = load i32, ptr %34, align 4
  %36 = lshr i32 %35, 2
  %37 = and i32 %36, 1
  %38 = icmp ne i32 %37, 0
  br i1 %38, label %39, label %40

39:                                               ; preds = %32
  store i32 1, ptr %7, align 4
  br label %85

40:                                               ; preds = %32
  %41 = load ptr, ptr %2, align 8, !tbaa !3
  %42 = getelementptr inbounds nuw %struct.BrotliDecoderStateStruct, ptr %41, i32 0, i32 17
  %43 = load ptr, ptr %42, align 8, !tbaa !48
  %44 = icmp ne ptr %43, null
  br i1 %44, label %46, label %45

45:                                               ; preds = %40
  store i32 0, ptr %6, align 4, !tbaa !8
  br label %50

46:                                               ; preds = %40
  %47 = load ptr, ptr %2, align 8, !tbaa !3
  %48 = getelementptr inbounds nuw %struct.BrotliDecoderStateStruct, ptr %47, i32 0, i32 8
  %49 = load i32, ptr %48, align 8, !tbaa !81
  store i32 %49, ptr %6, align 4, !tbaa !8
  br label %50

50:                                               ; preds = %46, %45
  %51 = load ptr, ptr %2, align 8, !tbaa !3
  %52 = getelementptr inbounds nuw %struct.BrotliDecoderStateStruct, ptr %51, i32 0, i32 16
  %53 = load i32, ptr %52, align 4, !tbaa !58
  %54 = load i32, ptr %6, align 4, !tbaa !8
  %55 = add nsw i32 %54, %53
  store i32 %55, ptr %6, align 4, !tbaa !8
  %56 = load i32, ptr %5, align 4, !tbaa !8
  %57 = load i32, ptr %6, align 4, !tbaa !8
  %58 = icmp slt i32 %56, %57
  br i1 %58, label %59, label %61

59:                                               ; preds = %50
  %60 = load i32, ptr %6, align 4, !tbaa !8
  br label %63

61:                                               ; preds = %50
  %62 = load i32, ptr %5, align 4, !tbaa !8
  br label %63

63:                                               ; preds = %61, %59
  %64 = phi i32 [ %60, %59 ], [ %62, %61 ]
  store i32 %64, ptr %5, align 4, !tbaa !8
  %65 = load ptr, ptr %2, align 8, !tbaa !3
  %66 = getelementptr inbounds nuw %struct.BrotliDecoderStateStruct, ptr %65, i32 0, i32 55
  %67 = load i32, ptr %66, align 4
  %68 = lshr i32 %67, 4
  %69 = and i32 %68, 1
  %70 = icmp ne i32 %69, 0
  br i1 %70, label %71, label %81

71:                                               ; preds = %63
  br label %72

72:                                               ; preds = %77, %71
  %73 = load i32, ptr %4, align 4, !tbaa !8
  %74 = ashr i32 %73, 1
  %75 = load i32, ptr %5, align 4, !tbaa !8
  %76 = icmp sge i32 %74, %75
  br i1 %76, label %77, label %80

77:                                               ; preds = %72
  %78 = load i32, ptr %4, align 4, !tbaa !8
  %79 = ashr i32 %78, 1
  store i32 %79, ptr %4, align 4, !tbaa !8
  br label %72, !llvm.loop !93

80:                                               ; preds = %72
  br label %81

81:                                               ; preds = %80, %63
  %82 = load i32, ptr %4, align 4, !tbaa !8
  %83 = load ptr, ptr %2, align 8, !tbaa !3
  %84 = getelementptr inbounds nuw %struct.BrotliDecoderStateStruct, ptr %83, i32 0, i32 54
  store i32 %82, ptr %84, align 8, !tbaa !94
  store i32 0, ptr %7, align 4
  br label %85

85:                                               ; preds = %81, %39, %31
  call void @llvm.lifetime.end.p0(i64 4, ptr %6) #11
  call void @llvm.lifetime.end.p0(i64 4, ptr %5) #11
  call void @llvm.lifetime.end.p0(i64 4, ptr %4) #11
  call void @llvm.lifetime.end.p0(i64 4, ptr %3) #11
  %86 = load i32, ptr %7, align 4
  switch i32 %86, label %88 [
    i32 0, label %87
    i32 1, label %87
  ]

87:                                               ; preds = %85, %85
  ret void

88:                                               ; preds = %85
  unreachable
}