; Function Attrs: nofree noinline norecurse nosync nounwind memory(argmem: readwrite) uwtable
define internal fastcc void @BrotliCalculateRingBufferSize(ptr noundef captures(none) %0) unnamed_addr #9 {
  %2 = getelementptr inbounds nuw i8, ptr %0, i64 772
  %3 = load i32, ptr %2, align 4
  %4 = lshr i32 %3, 6
  %5 = and i32 %4, 63
  %6 = shl nuw i32 1, %5
  %7 = getelementptr inbounds nuw i8, ptr %0, i64 100
  %8 = load i32, ptr %7, align 4, !tbaa !103
  %.not = icmp eq i32 %8, 0
  %spec.select = select i1 %.not, i32 1024, i32 %8
  %9 = icmp ne i32 %8, %6
  %10 = and i32 %3, 4
  %.not24 = icmp eq i32 %10, 0
  %or.cond = and i1 %.not24, %9
  br i1 %or.cond, label %11, label %25

11:                                               ; preds = %1
  %12 = getelementptr inbounds nuw i8, ptr %0, i64 136
  %13 = load ptr, ptr %12, align 8, !tbaa !43
  %.not25 = icmp eq ptr %13, null
  br i1 %.not25, label %17, label %14

14:                                               ; preds = %11
  %15 = getelementptr inbounds nuw i8, ptr %0, i64 88
  %16 = load i32, ptr %15, align 8, !tbaa !105
  br label %17

17:                                               ; preds = %11, %14
  %.0 = phi i32 [ %16, %14 ], [ 0, %11 ]
  %18 = getelementptr inbounds nuw i8, ptr %0, i64 132
  %19 = load i32, ptr %18, align 4, !tbaa !54
  %20 = add nsw i32 %19, %.0
  %21 = tail call i32 @llvm.smax.i32(i32 %spec.select, i32 %20)
  %22 = and i32 %3, 16
  %.not26 = icmp eq i32 %22, 0
  br i1 %.not26, label %.loopexit, label %.preheader

.preheader:                                       ; preds = %17, %.preheader
  %.1 = phi i32 [ %23, %.preheader ], [ %6, %17 ]
  %23 = ashr i32 %.1, 1
  %.not27 = icmp slt i32 %23, %21
  br i1 %.not27, label %.loopexit, label %.preheader, !llvm.loop !116

.loopexit:                                        ; preds = %.preheader, %17
  %.020 = phi i32 [ %6, %17 ], [ %.1, %.preheader ]
  %24 = getelementptr inbounds nuw i8, ptr %0, i64 768
  store i32 %.020, ptr %24, align 8, !tbaa !117
  br label %25

25:                                               ; preds = %1, %.loopexit
  ret void
}